target datalayout = "e-m:e-p270:32:32-p271:32:32-p272:64:64-i64:64-i128:128-f80:128-n8:16:32:64-S128"
target triple = "x86_64-pc-linux-gnu"

@.str.31 = private unnamed_addr constant [17 x i8] c"CVodeGetNumSteps\00", align 1
@.str.37 = private unnamed_addr constant [18 x i8] c"CVodeGetWorkSpace\00", align 1
@.str.38 = private unnamed_addr constant [20 x i8] c"CVodeGetNumRhsEvals\00", align 1
@.str.39 = private unnamed_addr constant [25 x i8] c"CVodeGetNumLinSolvSetups\00", align 1
@.str.40 = private unnamed_addr constant [24 x i8] c"CVodeGetNumErrTestFails\00", align 1
@.str.41 = private unnamed_addr constant [27 x i8] c"CVodeGetNumNonlinSolvIters\00", align 1
@.str.42 = private unnamed_addr constant [31 x i8] c"CVodeGetNumNonlinSolvConvFails\00", align 1
@.str.43 = private unnamed_addr constant [21 x i8] c"CVodeGetLinWorkSpace\00", align 1
@.str.44 = private unnamed_addr constant [20 x i8] c"CVodeGetNumLinIters\00", align 1
@.str.45 = private unnamed_addr constant [21 x i8] c"CVodeGetNumPrecEvals\00", align 1
@.str.46 = private unnamed_addr constant [22 x i8] c"CVodeGetNumPrecSolves\00", align 1
@.str.47 = private unnamed_addr constant [24 x i8] c"CVodeGetNumLinConvFails\00", align 1
@.str.48 = private unnamed_addr constant [23 x i8] c"CVodeGetNumLinRhsEvals\00", align 1
@.str.49 = private unnamed_addr constant [23 x i8] c"\0AFinal Statistics.. \0A\0A\00", align 1
@.str.50 = private unnamed_addr constant [35 x i8] c"lenrw   = %5ld     leniw   = %5ld\0A\00", align 1
@.str.51 = private unnamed_addr constant [35 x i8] c"lenrwLS = %5ld     leniwLS = %5ld\0A\00", align 1
@.str.52 = private unnamed_addr constant [16 x i8] c"nst     = %5ld\0A\00", align 1
@.str.53 = private unnamed_addr constant [35 x i8] c"nfe     = %5ld     nfeLS   = %5ld\0A\00", align 1
@.str.54 = private unnamed_addr constant [35 x i8] c"nni     = %5ld     nli     = %5ld\0A\00", align 1
@.str.55 = private unnamed_addr constant [35 x i8] c"nsetups = %5ld     netf    = %5ld\0A\00", align 1
@.str.56 = private unnamed_addr constant [35 x i8] c"npe     = %5ld     nps     = %5ld\0A\00", align 1
@.str.57 = private unnamed_addr constant [36 x i8] c"ncfn    = %5ld     ncfl    = %5ld\0A\0A\00", align 1
@.str.58 = private unnamed_addr constant [73 x i8] c"======================================================================\0A\0A\00", align 1
@stderr = external global ptr, align 8
@.str.59 = private unnamed_addr constant [55 x i8] c"\0ASUNDIALS_ERROR: %s() failed - returned NULL pointer\0A\0A\00", align 1
@.str.60 = private unnamed_addr constant [48 x i8] c"\0ASUNDIALS_ERROR: %s() failed with retval = %d\0A\0A\00", align 1
@.str.61 = private unnamed_addr constant [53 x i8] c"\0AMEMORY_ERROR: %s() failed - returned NULL pointer\0A\0A\00", align 1

; Function Attrs: nounwind uwtable
define internal i32 @check_retval(ptr noundef %0, ptr noundef %1, i32 noundef %2) #0 {
  %4 = alloca i32, align 4
  %5 = alloca ptr, align 8
  %6 = alloca ptr, align 8
  %7 = alloca i32, align 4
  %8 = alloca ptr, align 8
  %9 = alloca i32, align 4
  store ptr %0, ptr %5, align 8, !tbaa !15
  store ptr %1, ptr %6, align 8, !tbaa !11
  store i32 %2, ptr %7, align 4, !tbaa !4
  call void @llvm.lifetime.start.p0(i64 8, ptr %8) #7
  %10 = load i32, ptr %7, align 4, !tbaa !4
  %11 = icmp eq i32 %10, 0
  br i1 %11, label %12, label %19

12:                                               ; preds = %3
  %13 = load ptr, ptr %5, align 8, !tbaa !15
  %14 = icmp eq ptr %13, null
  br i1 %14, label %15, label %19

15:                                               ; preds = %12
  %16 = load ptr, ptr @stderr, align 8, !tbaa !29
  %17 = load ptr, ptr %6, align 8, !tbaa !11
  %18 = call i32 (ptr, ptr, ...) @fprintf(ptr noundef %16, ptr noundef @.str.59, ptr noundef %17) #7
  store i32 1, ptr %4, align 4
  store i32 1, ptr %9, align 4
  br label %47

19:                                               ; preds = %12, %3
  %20 = load i32, ptr %7, align 4, !tbaa !4
  %21 = icmp eq i32 %20, 1
  br i1 %21, label %22, label %34

22:                                               ; preds = %19
  %23 = load ptr, ptr %5, align 8, !tbaa !15
  store ptr %23, ptr %8, align 8, !tbaa !31
  %24 = load ptr, ptr %8, align 8, !tbaa !31
  %25 = load i32, ptr %24, align 4, !tbaa !4
  %26 = icmp slt i32 %25, 0
  br i1 %26, label %27, label %33

27:                                               ; preds = %22
  %28 = load ptr, ptr @stderr, align 8, !tbaa !29
  %29 = load ptr, ptr %6, align 8, !tbaa !11
  %30 = load ptr, ptr %8, align 8, !tbaa !31
  %31 = load i32, ptr %30, align 4, !tbaa !4
  %32 = call i32 (ptr, ptr, ...) @fprintf(ptr noundef %28, ptr noundef @.str.60, ptr noundef %29, i32 noundef %31) #7
  store i32 1, ptr %4, align 4
  store i32 1, ptr %9, align 4
  br label %47

33:                                               ; preds = %22
  br label %45

34:                                               ; preds = %19
  %35 = load i32, ptr %7, align 4, !tbaa !4
  %36 = icmp eq i32 %35, 2
  br i1 %36, label %37, label %44

37:                                               ; preds = %34
  %38 = load ptr, ptr %5, align 8, !tbaa !15
  %39 = icmp eq ptr %38, null
  br i1 %39, label %40, label %44

40:                                               ; preds = %37
  %41 = load ptr, ptr @stderr, align 8, !tbaa !29
  %42 = load ptr, ptr %6, align 8, !tbaa !11
  %43 = call i32 (ptr, ptr, ...) @fprintf(ptr noundef %41, ptr noundef @.str.61, ptr noundef %42) #7
  store i32 1, ptr %4, align 4
  store i32 1, ptr %9, align 4
  br label %47

44:                                               ; preds = %37, %34
  br label %45

45:                                               ; preds = %44, %33
  br label %46

46:                                               ; preds = %45
  store i32 0, ptr %4, align 4
  store i32 1, ptr %9, align 4
  br label %47

47:                                               ; preds = %46, %40, %27, %15
  call void @llvm.lifetime.end.p0(i64 8, ptr %8) #7
  %48 = load i32, ptr %4, align 4
  ret i32 %48
}

; Function Attrs: nounwind uwtable
define internal void @PrintFinalStats(ptr noundef %0, i32 noundef %1) #0 {
  %3 = alloca ptr, align 8
  %4 = alloca i32, align 4
  %5 = alloca i64, align 8
  %6 = alloca i64, align 8
  %7 = alloca i64, align 8
  %8 = alloca i64, align 8
  %9 = alloca i64, align 8
  %10 = alloca i64, align 8
  %11 = alloca i64, align 8
  %12 = alloca i64, align 8
  %13 = alloca i64, align 8
  %14 = alloca i64, align 8
  %15 = alloca i64, align 8
  %16 = alloca i64, align 8
  %17 = alloca i64, align 8
  %18 = alloca i64, align 8
  %19 = alloca i64, align 8
  %20 = alloca i32, align 4
  store ptr %0, ptr %3, align 8, !tbaa !15
  store i32 %1, ptr %4, align 4, !tbaa !4
  call void @llvm.lifetime.start.p0(i64 8, ptr %5) #7
  call void @llvm.lifetime.start.p0(i64 8, ptr %6) #7
  call void @llvm.lifetime.start.p0(i64 8, ptr %7) #7
  call void @llvm.lifetime.start.p0(i64 8, ptr %8) #7
  call void @llvm.lifetime.start.p0(i64 8, ptr %9) #7
  call void @llvm.lifetime.start.p0(i64 8, ptr %10) #7
  call void @llvm.lifetime.start.p0(i64 8, ptr %11) #7
  call void @llvm.lifetime.start.p0(i64 8, ptr %12) #7
  call void @llvm.lifetime.start.p0(i64 8, ptr %13) #7
  call void @llvm.lifetime.start.p0(i64 8, ptr %14) #7
  call void @llvm.lifetime.start.p0(i64 8, ptr %15) #7
  call void @llvm.lifetime.start.p0(i64 8, ptr %16) #7
  call void @llvm.lifetime.start.p0(i64 8, ptr %17) #7
  call void @llvm.lifetime.start.p0(i64 8, ptr %18) #7
  call void @llvm.lifetime.start.p0(i64 8, ptr %19) #7
  call void @llvm.lifetime.start.p0(i64 4, ptr %20) #7
  %21 = load ptr, ptr %3, align 8, !tbaa !15
  %22 = call i32 @CVodeGetWorkSpace(ptr noundef %21, ptr noundef %5, ptr noundef %6)
  store i32 %22, ptr %20, align 4, !tbaa !4
  %23 = call i32 @check_retval(ptr noundef %20, ptr noundef @.str.37, i32 noundef 1)
  %24 = load ptr, ptr %3, align 8, !tbaa !15
  %25 = call i32 @CVodeGetNumSteps(ptr noundef %24, ptr noundef %9)
  store i32 %25, ptr %20, align 4, !tbaa !4
  %26 = call i32 @check_retval(ptr noundef %20, ptr noundef @.str.31, i32 noundef 1)
  %27 = load ptr, ptr %3, align 8, !tbaa !15
  %28 = call i32 @CVodeGetNumRhsEvals(ptr noundef %27, ptr noundef %10)
  store i32 %28, ptr %20, align 4, !tbaa !4
  %29 = call i32 @check_retval(ptr noundef %20, ptr noundef @.str.38, i32 noundef 1)
  %30 = load ptr, ptr %3, align 8, !tbaa !15
  %31 = call i32 @CVodeGetNumLinSolvSetups(ptr noundef %30, ptr noundef %11)
  store i32 %31, ptr %20, align 4, !tbaa !4
  %32 = call i32 @check_retval(ptr noundef %20, ptr noundef @.str.39, i32 noundef 1)
  %33 = load ptr, ptr %3, align 8, !tbaa !15
  %34 = call i32 @CVodeGetNumErrTestFails(ptr noundef %33, ptr noundef %14)
  store i32 %34, ptr %20, align 4, !tbaa !4
  %35 = call i32 @check_retval(ptr noundef %20, ptr noundef @.str.40, i32 noundef 1)
  %36 = load ptr, ptr %3, align 8, !tbaa !15
  %37 = call i32 @CVodeGetNumNonlinSolvIters(ptr noundef %36, ptr noundef %12)
  store i32 %37, ptr %20, align 4, !tbaa !4
  %38 = call i32 @check_retval(ptr noundef %20, ptr noundef @.str.41, i32 noundef 1)
  %39 = load ptr, ptr %3, align 8, !tbaa !15
  %40 = call i32 @CVodeGetNumNonlinSolvConvFails(ptr noundef %39, ptr noundef %13)
  store i32 %40, ptr %20, align 4, !tbaa !4
  %41 = call i32 @check_retval(ptr noundef %20, ptr noundef @.str.42, i32 noundef 1)
  %42 = load ptr, ptr %3, align 8, !tbaa !15
  %43 = call i32 @CVodeGetLinWorkSpace(ptr noundef %42, ptr noundef %7, ptr noundef %8)
  store i32 %43, ptr %20, align 4, !tbaa !4
  %44 = call i32 @check_retval(ptr noundef %20, ptr noundef @.str.43, i32 noundef 1)
  %45 = load ptr, ptr %3, align 8, !tbaa !15
  %46 = call i32 @CVodeGetNumLinIters(ptr noundef %45, ptr noundef %15)
  store i32 %46, ptr %20, align 4, !tbaa !4
  %47 = call i32 @check_retval(ptr noundef %20, ptr noundef @.str.44, i32 noundef 1)
  %48 = load ptr, ptr %3, align 8, !tbaa !15
  %49 = call i32 @CVodeGetNumPrecEvals(ptr noundef %48, ptr noundef %16)
  store i32 %49, ptr %20, align 4, !tbaa !4
  %50 = call i32 @check_retval(ptr noundef %20, ptr noundef @.str.45, i32 noundef 1)
  %51 = load ptr, ptr %3, align 8, !tbaa !15
  %52 = call i32 @CVodeGetNumPrecSolves(ptr noundef %51, ptr noundef %17)
  store i32 %52, ptr %20, align 4, !tbaa !4
  %53 = call i32 @check_retval(ptr noundef %20, ptr noundef @.str.46, i32 noundef 1)
  %54 = load ptr, ptr %3, align 8, !tbaa !15
  %55 = call i32 @CVodeGetNumLinConvFails(ptr noundef %54, ptr noundef %18)
  store i32 %55, ptr %20, align 4, !tbaa !4
  %56 = call i32 @check_retval(ptr noundef %20, ptr noundef @.str.47, i32 noundef 1)
  %57 = load ptr, ptr %3, align 8, !tbaa !15
  %58 = call i32 @CVodeGetNumLinRhsEvals(ptr noundef %57, ptr noundef %19)
  store i32 %58, ptr %20, align 4, !tbaa !4
  %59 = call i32 @check_retval(ptr noundef %20, ptr noundef @.str.48, i32 noundef 1)
  %60 = call i32 (ptr, ...) @printf(ptr noundef @.str.49)
  %61 = load i64, ptr %5, align 8, !tbaa !48
  %62 = load i64, ptr %6, align 8, !tbaa !48
  %63 = call i32 (ptr, ...) @printf(ptr noundef @.str.50, i64 noundef %61, i64 noundef %62)
  %64 = load i64, ptr %7, align 8, !tbaa !48
  %65 = load i64, ptr %8, align 8, !tbaa !48
  %66 = call i32 (ptr, ...) @printf(ptr noundef @.str.51, i64 noundef %64, i64 noundef %65)
  %67 = load i64, ptr %9, align 8, !tbaa !48
  %68 = call i32 (ptr, ...) @printf(ptr noundef @.str.52, i64 noundef %67)
  %69 = load i64, ptr %10, align 8, !tbaa !48
  %70 = load i64, ptr %19, align 8, !tbaa !48
  %71 = call i32 (ptr, ...) @printf(ptr noundef @.str.53, i64 noundef %69, i64 noundef %70)
  %72 = load i64, ptr %12, align 8, !tbaa !48
  %73 = load i64, ptr %15, align 8, !tbaa !48
  %74 = call i32 (ptr, ...) @printf(ptr noundef @.str.54, i64 noundef %72, i64 noundef %73)
  %75 = load i64, ptr %11, align 8, !tbaa !48
  %76 = load i64, ptr %14, align 8, !tbaa !48
  %77 = call i32 (ptr, ...) @printf(ptr noundef @.str.55, i64 noundef %75, i64 noundef %76)
  %78 = load i64, ptr %16, align 8, !tbaa !48
  %79 = load i64, ptr %17, align 8, !tbaa !48
  %80 = call i32 (ptr, ...) @printf(ptr noundef @.str.56, i64 noundef %78, i64 noundef %79)
  %81 = load i64, ptr %13, align 8, !tbaa !48
  %82 = load i64, ptr %18, align 8, !tbaa !48
  %83 = call i32 (ptr, ...) @printf(ptr noundef @.str.57, i64 noundef %81, i64 noundef %82)
  %84 = load i32, ptr %4, align 4, !tbaa !4
  %85 = icmp slt i32 %84, 2
  br i1 %85, label %86, label %88

86:                                               ; preds = %2
  %87 = call i32 (ptr, ...) @printf(ptr noundef @.str.58)
  br label %88

88:                                               ; preds = %86, %2
  call void @llvm.lifetime.end.p0(i64 4, ptr %20) #7
  call void @llvm.lifetime.end.p0(i64 8, ptr %19) #7
  call void @llvm.lifetime.end.p0(i64 8, ptr %18) #7
  call void @llvm.lifetime.end.p0(i64 8, ptr %17) #7
  call void @llvm.lifetime.end.p0(i64 8, ptr %16) #7
  call void @llvm.lifetime.end.p0(i64 8, ptr %15) #7
  call void @llvm.lifetime.end.p0(i64 8, ptr %14) #7
  call void @llvm.lifetime.end.p0(i64 8, ptr %13) #7
  call void @llvm.lifetime.end.p0(i64 8, ptr %12) #7
  call void @llvm.lifetime.end.p0(i64 8, ptr %11) #7
  call void @llvm.lifetime.end.p0(i64 8, ptr %10) #7
  call void @llvm.lifetime.end.p0(i64 8, ptr %9) #7
  call void @llvm.lifetime.end.p0(i64 8, ptr %8) #7
  call void @llvm.lifetime.end.p0(i64 8, ptr %7) #7
  call void @llvm.lifetime.end.p0(i64 8, ptr %6) #7
  call void @llvm.lifetime.end.p0(i64 8, ptr %5) #7
  ret void
}