; Function Attrs: nounwind uwtable
define internal fastcc void @PrintFinalStats(ptr noundef %0, i32 noundef range(i32 -2147483648, 4) %1) unnamed_addr #0 {
  %3 = alloca i64, align 8
  %4 = alloca i64, align 8
  %5 = alloca i64, align 8
  %6 = alloca i64, align 8
  %7 = alloca i64, align 8
  %8 = alloca i64, align 8
  %9 = alloca i64, align 8
  %10 = alloca i64, align 8
  %11 = alloca i64, align 8
  %12 = alloca i64, align 8
  %13 = alloca i64, align 8
  %14 = alloca i64, align 8
  %15 = alloca i64, align 8
  %16 = alloca i64, align 8
  %17 = alloca i64, align 8
  call void @llvm.lifetime.start.p0(i64 8, ptr nonnull %3) #10
  call void @llvm.lifetime.start.p0(i64 8, ptr nonnull %4) #10
  call void @llvm.lifetime.start.p0(i64 8, ptr nonnull %5) #10
  call void @llvm.lifetime.start.p0(i64 8, ptr nonnull %6) #10
  call void @llvm.lifetime.start.p0(i64 8, ptr nonnull %7) #10
  call void @llvm.lifetime.start.p0(i64 8, ptr nonnull %8) #10
  call void @llvm.lifetime.start.p0(i64 8, ptr nonnull %9) #10
  call void @llvm.lifetime.start.p0(i64 8, ptr nonnull %10) #10
  call void @llvm.lifetime.start.p0(i64 8, ptr nonnull %11) #10
  call void @llvm.lifetime.start.p0(i64 8, ptr nonnull %12) #10
  call void @llvm.lifetime.start.p0(i64 8, ptr nonnull %13) #10
  call void @llvm.lifetime.start.p0(i64 8, ptr nonnull %14) #10
  call void @llvm.lifetime.start.p0(i64 8, ptr nonnull %15) #10
  call void @llvm.lifetime.start.p0(i64 8, ptr nonnull %16) #10
  call void @llvm.lifetime.start.p0(i64 8, ptr nonnull %17) #10
  %18 = call i32 @CVodeGetWorkSpace(ptr noundef %0, ptr noundef nonnull %3, ptr noundef nonnull %4) #10
  %19 = icmp slt i32 %18, 0
  br i1 %19, label %20, label %check_retval.exit

20:                                               ; preds = %2
  %21 = load ptr, ptr @stderr, align 8, !tbaa !9
  %22 = call i32 (ptr, ptr, ...) @fprintf(ptr noundef %21, ptr noundef nonnull @.str.60, ptr noundef nonnull @.str.37, i32 noundef %18) #11
  br label %check_retval.exit

check_retval.exit:                                ; preds = %2, %20
  %23 = call i32 @CVodeGetNumSteps(ptr noundef %0, ptr noundef nonnull %7) #10
  %24 = icmp slt i32 %23, 0
  br i1 %24, label %25, label %check_retval.exit15

25:                                               ; preds = %check_retval.exit
  %26 = load ptr, ptr @stderr, align 8, !tbaa !9
  %27 = call i32 (ptr, ptr, ...) @fprintf(ptr noundef %26, ptr noundef nonnull @.str.60, ptr noundef nonnull @.str.31, i32 noundef %23) #11
  br label %check_retval.exit15

check_retval.exit15:                              ; preds = %check_retval.exit, %25
  %28 = call i32 @CVodeGetNumRhsEvals(ptr noundef %0, ptr noundef nonnull %8) #10
  %29 = icmp slt i32 %28, 0
  br i1 %29, label %30, label %check_retval.exit17

30:                                               ; preds = %check_retval.exit15
  %31 = load ptr, ptr @stderr, align 8, !tbaa !9
  %32 = call i32 (ptr, ptr, ...) @fprintf(ptr noundef %31, ptr noundef nonnull @.str.60, ptr noundef nonnull @.str.38, i32 noundef %28) #11
  br label %check_retval.exit17

check_retval.exit17:                              ; preds = %check_retval.exit15, %30
  %33 = call i32 @CVodeGetNumLinSolvSetups(ptr noundef %0, ptr noundef nonnull %9) #10
  %34 = icmp slt i32 %33, 0
  br i1 %34, label %35, label %check_retval.exit19

35:                                               ; preds = %check_retval.exit17
  %36 = load ptr, ptr @stderr, align 8, !tbaa !9
  %37 = call i32 (ptr, ptr, ...) @fprintf(ptr noundef %36, ptr noundef nonnull @.str.60, ptr noundef nonnull @.str.39, i32 noundef %33) #11
  br label %check_retval.exit19

check_retval.exit19:                              ; preds = %check_retval.exit17, %35
  %38 = call i32 @CVodeGetNumErrTestFails(ptr noundef %0, ptr noundef nonnull %12) #10
  %39 = icmp slt i32 %38, 0
  br i1 %39, label %40, label %check_retval.exit21

40:                                               ; preds = %check_retval.exit19
  %41 = load ptr, ptr @stderr, align 8, !tbaa !9
  %42 = call i32 (ptr, ptr, ...) @fprintf(ptr noundef %41, ptr noundef nonnull @.str.60, ptr noundef nonnull @.str.40, i32 noundef %38) #11
  br label %check_retval.exit21

check_retval.exit21:                              ; preds = %check_retval.exit19, %40
  %43 = call i32 @CVodeGetNumNonlinSolvIters(ptr noundef %0, ptr noundef nonnull %10) #10
  %44 = icmp slt i32 %43, 0
  br i1 %44, label %45, label %check_retval.exit23

45:                                               ; preds = %check_retval.exit21
  %46 = load ptr, ptr @stderr, align 8, !tbaa !9
  %47 = call i32 (ptr, ptr, ...) @fprintf(ptr noundef %46, ptr noundef nonnull @.str.60, ptr noundef nonnull @.str.41, i32 noundef %43) #11
  br label %check_retval.exit23

check_retval.exit23:                              ; preds = %check_retval.exit21, %45
  %48 = call i32 @CVodeGetNumNonlinSolvConvFails(ptr noundef %0, ptr noundef nonnull %11) #10
  %49 = icmp slt i32 %48, 0
  br i1 %49, label %50, label %check_retval.exit25

50:                                               ; preds = %check_retval.exit23
  %51 = load ptr, ptr @stderr, align 8, !tbaa !9
  %52 = call i32 (ptr, ptr, ...) @fprintf(ptr noundef %51, ptr noundef nonnull @.str.60, ptr noundef nonnull @.str.42, i32 noundef %48) #11
  br label %check_retval.exit25

check_retval.exit25:                              ; preds = %check_retval.exit23, %50
  %53 = call i32 @CVodeGetLinWorkSpace(ptr noundef %0, ptr noundef nonnull %5, ptr noundef nonnull %6) #10
  %54 = icmp slt i32 %53, 0
  br i1 %54, label %55, label %check_retval.exit27

55:                                               ; preds = %check_retval.exit25
  %56 = load ptr, ptr @stderr, align 8, !tbaa !9
  %57 = call i32 (ptr, ptr, ...) @fprintf(ptr noundef %56, ptr noundef nonnull @.str.60, ptr noundef nonnull @.str.43, i32 noundef %53) #11
  br label %check_retval.exit27

check_retval.exit27:                              ; preds = %check_retval.exit25, %55
  %58 = call i32 @CVodeGetNumLinIters(ptr noundef %0, ptr noundef nonnull %13) #10
  %59 = icmp slt i32 %58, 0
  br i1 %59, label %60, label %check_retval.exit29

60:                                               ; preds = %check_retval.exit27
  %61 = load ptr, ptr @stderr, align 8, !tbaa !9
  %62 = call i32 (ptr, ptr, ...) @fprintf(ptr noundef %61, ptr noundef nonnull @.str.60, ptr noundef nonnull @.str.44, i32 noundef %58) #11
  br label %check_retval.exit29

check_retval.exit29:                              ; preds = %check_retval.exit27, %60
  %63 = call i32 @CVodeGetNumPrecEvals(ptr noundef %0, ptr noundef nonnull %14) #10
  %64 = icmp slt i32 %63, 0
  br i1 %64, label %65, label %check_retval.exit31

65:                                               ; preds = %check_retval.exit29
  %66 = load ptr, ptr @stderr, align 8, !tbaa !9
  %67 = call i32 (ptr, ptr, ...) @fprintf(ptr noundef %66, ptr noundef nonnull @.str.60, ptr noundef nonnull @.str.45, i32 noundef %63) #11
  br label %check_retval.exit31

check_retval.exit31:                              ; preds = %check_retval.exit29, %65
  %68 = call i32 @CVodeGetNumPrecSolves(ptr noundef %0, ptr noundef nonnull %15) #10
  %69 = icmp slt i32 %68, 0
  br i1 %69, label %70, label %check_retval.exit33

70:                                               ; preds = %check_retval.exit31
  %71 = load ptr, ptr @stderr, align 8, !tbaa !9
  %72 = call i32 (ptr, ptr, ...) @fprintf(ptr noundef %71, ptr noundef nonnull @.str.60, ptr noundef nonnull @.str.46, i32 noundef %68) #11
  br label %check_retval.exit33

check_retval.exit33:                              ; preds = %check_retval.exit31, %70
  %73 = call i32 @CVodeGetNumLinConvFails(ptr noundef %0, ptr noundef nonnull %16) #10
  %74 = icmp slt i32 %73, 0
  br i1 %74, label %75, label %check_retval.exit35

75:                                               ; preds = %check_retval.exit33
  %76 = load ptr, ptr @stderr, align 8, !tbaa !9
  %77 = call i32 (ptr, ptr, ...) @fprintf(ptr noundef %76, ptr noundef nonnull @.str.60, ptr noundef nonnull @.str.47, i32 noundef %73) #11
  br label %check_retval.exit35

check_retval.exit35:                              ; preds = %check_retval.exit33, %75
  %78 = call i32 @CVodeGetNumLinRhsEvals(ptr noundef %0, ptr noundef nonnull %17) #10
  %79 = icmp slt i32 %78, 0
  br i1 %79, label %80, label %check_retval.exit37

80:                                               ; preds = %check_retval.exit35
  %81 = load ptr, ptr @stderr, align 8, !tbaa !9
  %82 = call i32 (ptr, ptr, ...) @fprintf(ptr noundef %81, ptr noundef nonnull @.str.60, ptr noundef nonnull @.str.48, i32 noundef %78) #11
  br label %check_retval.exit37

check_retval.exit37:                              ; preds = %check_retval.exit35, %80
  %puts = call i32 @puts(ptr nonnull dereferenceable(1) @str.9)
  %83 = load i64, ptr %3, align 8, !tbaa !34
  %84 = load i64, ptr %4, align 8, !tbaa !34
  %85 = call i32 (ptr, ...) @printf(ptr noundef nonnull dereferenceable(1) @.str.50, i64 noundef %83, i64 noundef %84)
  %86 = load i64, ptr %5, align 8, !tbaa !34
  %87 = load i64, ptr %6, align 8, !tbaa !34
  %88 = call i32 (ptr, ...) @printf(ptr noundef nonnull dereferenceable(1) @.str.51, i64 noundef %86, i64 noundef %87)
  %89 = load i64, ptr %7, align 8, !tbaa !34
  %90 = call i32 (ptr, ...) @printf(ptr noundef nonnull dereferenceable(1) @.str.52, i64 noundef %89)
  %91 = load i64, ptr %8, align 8, !tbaa !34
  %92 = load i64, ptr %17, align 8, !tbaa !34
  %93 = call i32 (ptr, ...) @printf(ptr noundef nonnull dereferenceable(1) @.str.53, i64 noundef %91, i64 noundef %92)
  %94 = load i64, ptr %10, align 8, !tbaa !34
  %95 = load i64, ptr %13, align 8, !tbaa !34
  %96 = call i32 (ptr, ...) @printf(ptr noundef nonnull dereferenceable(1) @.str.54, i64 noundef %94, i64 noundef %95)
  %97 = load i64, ptr %9, align 8, !tbaa !34
  %98 = load i64, ptr %12, align 8, !tbaa !34
  %99 = call i32 (ptr, ...) @printf(ptr noundef nonnull dereferenceable(1) @.str.55, i64 noundef %97, i64 noundef %98)
  %100 = load i64, ptr %14, align 8, !tbaa !34
  %101 = load i64, ptr %15, align 8, !tbaa !34
  %102 = call i32 (ptr, ...) @printf(ptr noundef nonnull dereferenceable(1) @.str.56, i64 noundef %100, i64 noundef %101)
  %103 = load i64, ptr %11, align 8, !tbaa !34
  %104 = load i64, ptr %16, align 8, !tbaa !34
  %105 = call i32 (ptr, ...) @printf(ptr noundef nonnull dereferenceable(1) @.str.57, i64 noundef %103, i64 noundef %104)
  %106 = icmp slt i32 %1, 2
  br i1 %106, label %107, label %108

107:                                              ; preds = %check_retval.exit37
  %puts13 = call i32 @puts(ptr nonnull dereferenceable(1) @str.10)
  br label %108

108:                                              ; preds = %107, %check_retval.exit37
  call void @llvm.lifetime.end.p0(i64 8, ptr nonnull %17) #10
  call void @llvm.lifetime.end.p0(i64 8, ptr nonnull %16) #10
  call void @llvm.lifetime.end.p0(i64 8, ptr nonnull %15) #10
  call void @llvm.lifetime.end.p0(i64 8, ptr nonnull %14) #10
  call void @llvm.lifetime.end.p0(i64 8, ptr nonnull %13) #10
  call void @llvm.lifetime.end.p0(i64 8, ptr nonnull %12) #10
  call void @llvm.lifetime.end.p0(i64 8, ptr nonnull %11) #10
  call void @llvm.lifetime.end.p0(i64 8, ptr nonnull %10) #10
  call void @llvm.lifetime.end.p0(i64 8, ptr nonnull %9) #10
  call void @llvm.lifetime.end.p0(i64 8, ptr nonnull %8) #10
  call void @llvm.lifetime.end.p0(i64 8, ptr nonnull %7) #10
  call void @llvm.lifetime.end.p0(i64 8, ptr nonnull %6) #10
  call void @llvm.lifetime.end.p0(i64 8, ptr nonnull %5) #10
  call void @llvm.lifetime.end.p0(i64 8, ptr nonnull %4) #10
  call void @llvm.lifetime.end.p0(i64 8, ptr nonnull %3) #10
  ret void
}